; Function Attrs: nounwind uwtable
define hidden void @_glfwSetWindowTitleWayland(ptr noundef readonly captures(none) %0, ptr noundef %1) local_unnamed_addr #0 {
  %3 = getelementptr inbounds nuw i8, ptr %0, i64 984
  %4 = load ptr, ptr %3, align 8, !tbaa !160
  %.not = icmp eq ptr %4, null
  br i1 %.not, label %7, label %5

5:                                                ; preds = %2
  %6 = load ptr, ptr getelementptr inbounds nuw (i8, ptr @_glfw, i64 137696), align 8, !tbaa !207
  tail call void %6(ptr noundef nonnull %4, ptr noundef %1) #20
  br label %15

7:                                                ; preds = %2
  %8 = getelementptr inbounds nuw i8, ptr %0, i64 960
  %9 = load ptr, ptr %8, align 8, !tbaa !235
  %.not7 = icmp eq ptr %9, null
  br i1 %.not7, label %15, label %10

10:                                               ; preds = %7
  %11 = load ptr, ptr getelementptr inbounds nuw (i8, ptr @_glfw, i64 137528), align 8, !tbaa !136
  %12 = load ptr, ptr getelementptr inbounds nuw (i8, ptr @_glfw, i64 137520), align 8, !tbaa !93
  %13 = tail call i32 %12(ptr noundef nonnull %9) #20
  %14 = tail call ptr (ptr, i32, ptr, i32, i32, ...) %11(ptr noundef nonnull %9, i32 noundef 2, ptr noundef null, i32 noundef %13, i32 noundef 0, ptr noundef %1) #20
  br label %15

15:                                               ; preds = %7, %10, %5
  ret void
}